; ModuleID = '48/658.cpp'
source_filename = "48/658.cpp"
target datalayout = "e-m:e-p270:32:32-p271:32:32-p272:64:64-i64:64-f80:128-n8:16:32:64-S128"
target triple = "x86_64-pc-linux-gnu"

%"class.std::ios_base::Init" = type { i8 }
%"class.std::basic_istream" = type { i32 (...)**, i64, %"class.std::basic_ios" }
%"class.std::basic_ios" = type { %"class.std::ios_base", %"class.std::basic_ostream"*, i8, i8, %"class.std::basic_streambuf"*, %"class.std::ctype"*, %"class.std::num_put"*, %"class.std::num_get"* }
%"class.std::ios_base" = type { i32 (...)**, i64, i64, i32, i32, i32, %"struct.std::ios_base::_Callback_list"*, %"struct.std::ios_base::_Words", [8 x %"struct.std::ios_base::_Words"], i32, %"struct.std::ios_base::_Words"*, %"class.std::locale" }
%"struct.std::ios_base::_Callback_list" = type { %"struct.std::ios_base::_Callback_list"*, void (i32, %"class.std::ios_base"*, i32)*, i32, i32 }
%"struct.std::ios_base::_Words" = type { i8*, i64 }
%"class.std::locale" = type { %"class.std::locale::_Impl"* }
%"class.std::locale::_Impl" = type { i32, %"class.std::locale::facet"**, i64, %"class.std::locale::facet"**, i8** }
%"class.std::locale::facet" = type <{ i32 (...)**, i32, [4 x i8] }>
%"class.std::basic_ostream" = type { i32 (...)**, %"class.std::basic_ios" }
%"class.std::basic_streambuf" = type { i32 (...)**, i8*, i8*, i8*, i8*, i8*, i8*, %"class.std::locale" }
%"class.std::ctype" = type <{ %"class.std::locale::facet.base", [4 x i8], %struct.__locale_struct*, i8, [7 x i8], i32*, i32*, i16*, i8, [256 x i8], [256 x i8], i8, [6 x i8] }>
%"class.std::locale::facet.base" = type <{ i32 (...)**, i32 }>
%struct.__locale_struct = type { [13 x %struct.__locale_data*], i16*, i32*, i32*, [13 x i8*] }
%struct.__locale_data = type opaque
%"class.std::num_put" = type { %"class.std::locale::facet.base", [4 x i8] }
%"class.std::num_get" = type { %"class.std::locale::facet.base", [4 x i8] }

@_ZStL8__ioinit = internal global %"class.std::ios_base::Init" zeroinitializer, align 1
@__dso_handle = external hidden global i8
@_ZSt3cin = external dso_local global %"class.std::basic_istream", align 8
@_ZSt4cout = external dso_local global %"class.std::basic_ostream", align 8
@.str = private unnamed_addr constant [2 x i8] c" \00", align 1
@llvm.global_ctors = appending global [1 x { i32, void ()*, i8* }] [{ i32, void ()*, i8* } { i32 65535, void ()* @_GLOBAL__sub_I_658.cpp, i8* null }]

; Function Attrs: noinline uwtable
define internal void @__cxx_global_var_init() #0 section ".text.startup" {
  call void @_ZNSt8ios_base4InitC1Ev(%"class.std::ios_base::Init"* @_ZStL8__ioinit)
  %1 = call i32 @__cxa_atexit(void (i8*)* bitcast (void (%"class.std::ios_base::Init"*)* @_ZNSt8ios_base4InitD1Ev to void (i8*)*), i8* getelementptr inbounds (%"class.std::ios_base::Init", %"class.std::ios_base::Init"* @_ZStL8__ioinit, i32 0, i32 0), i8* @__dso_handle) #3
  ret void
}

declare dso_local void @_ZNSt8ios_base4InitC1Ev(%"class.std::ios_base::Init"*) unnamed_addr #1

; Function Attrs: nounwind
declare dso_local void @_ZNSt8ios_base4InitD1Ev(%"class.std::ios_base::Init"*) unnamed_addr #2

; Function Attrs: nounwind
declare dso_local i32 @__cxa_atexit(void (i8*)*, i8*, i8*) #3

; Function Attrs: noinline uwtable
define dso_local i32 @_Z1fiii(i32 %0, i32 %1, i32 %2) #0 {
  %4 = alloca i32, align 4
  %5 = alloca i32, align 4
  %6 = alloca i32, align 4
  %7 = alloca i32, align 4
  store i32 %0, i32* %5, align 4
  store i32 %1, i32* %6, align 4
  store i32 %2, i32* %7, align 4
  %8 = load i32, i32* %7, align 4
  %9 = icmp eq i32 %8, 0
  br i1 %9, label %10, label %18

10:                                               ; preds = %3
  %11 = load i32, i32* %5, align 4
  %12 = icmp eq i32 %11, 5
  br i1 %12, label %13, label %17

13:                                               ; preds = %10
  %14 = load i32, i32* %6, align 4
  %15 = icmp eq i32 %14, 5
  br i1 %15, label %16, label %17

16:                                               ; preds = %13
  store i32 1, i32* %4, align 4
  br label %85

17:                                               ; preds = %13, %10
  store i32 0, i32* %4, align 4
  br label %85

18:                                               ; preds = %3
  %19 = load i32, i32* %5, align 4
  %20 = sub nsw i32 %19, 1
  %21 = load i32, i32* %6, align 4
  %22 = sub nsw i32 %21, 1
  %23 = load i32, i32* %7, align 4
  %24 = sub nsw i32 %23, 1
  %25 = call i32 @_Z1fiii(i32 %20, i32 %22, i32 %24)
  %26 = load i32, i32* %5, align 4
  %27 = sub nsw i32 %26, 1
  %28 = load i32, i32* %6, align 4
  %29 = load i32, i32* %7, align 4
  %30 = sub nsw i32 %29, 1
  %31 = call i32 @_Z1fiii(i32 %27, i32 %28, i32 %30)
  %32 = add nsw i32 %25, %31
  %33 = load i32, i32* %5, align 4
  %34 = sub nsw i32 %33, 1
  %35 = load i32, i32* %6, align 4
  %36 = add nsw i32 %35, 1
  %37 = load i32, i32* %7, align 4
  %38 = sub nsw i32 %37, 1
  %39 = call i32 @_Z1fiii(i32 %34, i32 %36, i32 %38)
  %40 = add nsw i32 %32, %39
  %41 = load i32, i32* %5, align 4
  %42 = load i32, i32* %6, align 4
  %43 = sub nsw i32 %42, 1
  %44 = load i32, i32* %7, align 4
  %45 = sub nsw i32 %44, 1
  %46 = call i32 @_Z1fiii(i32 %41, i32 %43, i32 %45)
  %47 = add nsw i32 %40, %46
  %48 = load i32, i32* %5, align 4
  %49 = load i32, i32* %6, align 4
  %50 = add nsw i32 %49, 1
  %51 = load i32, i32* %7, align 4
  %52 = sub nsw i32 %51, 1
  %53 = call i32 @_Z1fiii(i32 %48, i32 %50, i32 %52)
  %54 = add nsw i32 %47, %53
  %55 = load i32, i32* %5, align 4
  %56 = add nsw i32 %55, 1
  %57 = load i32, i32* %6, align 4
  %58 = sub nsw i32 %57, 1
  %59 = load i32, i32* %7, align 4
  %60 = sub nsw i32 %59, 1
  %61 = call i32 @_Z1fiii(i32 %56, i32 %58, i32 %60)
  %62 = add nsw i32 %54, %61
  %63 = load i32, i32* %5, align 4
  %64 = add nsw i32 %63, 1
  %65 = load i32, i32* %6, align 4
  %66 = load i32, i32* %7, align 4
  %67 = sub nsw i32 %66, 1
  %68 = call i32 @_Z1fiii(i32 %64, i32 %65, i32 %67)
  %69 = add nsw i32 %62, %68
  %70 = load i32, i32* %5, align 4
  %71 = add nsw i32 %70, 1
  %72 = load i32, i32* %6, align 4
  %73 = add nsw i32 %72, 1
  %74 = load i32, i32* %7, align 4
  %75 = sub nsw i32 %74, 1
  %76 = call i32 @_Z1fiii(i32 %71, i32 %73, i32 %75)
  %77 = add nsw i32 %69, %76
  %78 = load i32, i32* %5, align 4
  %79 = load i32, i32* %6, align 4
  %80 = load i32, i32* %7, align 4
  %81 = sub nsw i32 %80, 1
  %82 = call i32 @_Z1fiii(i32 %78, i32 %79, i32 %81)
  %83 = mul nsw i32 2, %82
  %84 = add nsw i32 %77, %83
  store i32 %84, i32* %4, align 4
  br label %85

85:                                               ; preds = %18, %17, %16
  %86 = load i32, i32* %4, align 4
  ret i32 %86
}

; Function Attrs: noinline norecurse uwtable
define dso_local i32 @main() #4 {
  %1 = alloca i32, align 4
  %2 = alloca i32, align 4
  %3 = alloca i32, align 4
  %4 = alloca i32, align 4
  %5 = alloca i32, align 4
  store i32 0, i32* %1, align 4
  %6 = call dereferenceable(280) %"class.std::basic_istream"* @_ZNSirsERi(%"class.std::basic_istream"* @_ZSt3cin, i32* dereferenceable(4) %4)
  %7 = call dereferenceable(280) %"class.std::basic_istream"* @_ZNSirsERi(%"class.std::basic_istream"* %6, i32* dereferenceable(4) %5)
  store i32 1, i32* %2, align 4
  br label %8

8:                                                ; preds = %41, %0
  %9 = load i32, i32* %2, align 4
  %10 = icmp slt i32 %9, 10
  br i1 %10, label %11, label %44

11:                                               ; preds = %8
  store i32 1, i32* %3, align 4
  br label %12

12:                                               ; preds = %37, %11
  %13 = load i32, i32* %3, align 4
  %14 = icmp slt i32 %13, 10
  br i1 %14, label %15, label %40

15:                                               ; preds = %12
  %16 = load i32, i32* %3, align 4
  %17 = icmp eq i32 %16, 9
  br i1 %17, label %18, label %27

18:                                               ; preds = %15
  %19 = load i32, i32* %4, align 4
  %20 = load i32, i32* %2, align 4
  %21 = load i32, i32* %3, align 4
  %22 = load i32, i32* %5, align 4
  %23 = call i32 @_Z1fiii(i32 %20, i32 %21, i32 %22)
  %24 = mul nsw i32 %19, %23
  %25 = call dereferenceable(272) %"class.std::basic_ostream"* @_ZNSolsEi(%"class.std::basic_ostream"* @_ZSt4cout, i32 %24)
  %26 = call dereferenceable(272) %"class.std::basic_ostream"* @_ZNSolsEPFRSoS_E(%"class.std::basic_ostream"* %25, %"class.std::basic_ostream"* (%"class.std::basic_ostream"*)* @_ZSt4endlIcSt11char_traitsIcEERSt13basic_ostreamIT_T0_ES6_)
  br label %36

27:                                               ; preds = %15
  %28 = load i32, i32* %4, align 4
  %29 = load i32, i32* %2, align 4
  %30 = load i32, i32* %3, align 4
  %31 = load i32, i32* %5, align 4
  %32 = call i32 @_Z1fiii(i32 %29, i32 %30, i32 %31)
  %33 = mul nsw i32 %28, %32
  %34 = call dereferenceable(272) %"class.std::basic_ostream"* @_ZNSolsEi(%"class.std::basic_ostream"* @_ZSt4cout, i32 %33)
  %35 = call dereferenceable(272) %"class.std::basic_ostream"* @_ZStlsISt11char_traitsIcEERSt13basic_ostreamIcT_ES5_PKc(%"class.std::basic_ostream"* dereferenceable(272) %34, i8* getelementptr inbounds ([2 x i8], [2 x i8]* @.str, i64 0, i64 0))
  br label %36

36:                                               ; preds = %27, %18
  br label %37

37:                                               ; preds = %36
  %38 = load i32, i32* %3, align 4
  %39 = add nsw i32 %38, 1
  store i32 %39, i32* %3, align 4
  br label %12

40:                                               ; preds = %12
  br label %41

41:                                               ; preds = %40
  %42 = load i32, i32* %2, align 4
  %43 = add nsw i32 %42, 1
  store i32 %43, i32* %2, align 4
  br label %8

44:                                               ; preds = %8
  ret i32 0
}

declare dso_local dereferenceable(280) %"class.std::basic_istream"* @_ZNSirsERi(%"class.std::basic_istream"*, i32* dereferenceable(4)) #1

declare dso_local dereferenceable(272) %"class.std::basic_ostream"* @_ZNSolsEi(%"class.std::basic_ostream"*, i32) #1

declare dso_local dereferenceable(272) %"class.std::basic_ostream"* @_ZNSolsEPFRSoS_E(%"class.std::basic_ostream"*, %"class.std::basic_ostream"* (%"class.std::basic_ostream"*)*) #1

declare dso_local dereferenceable(272) %"class.std::basic_ostream"* @_ZSt4endlIcSt11char_traitsIcEERSt13basic_ostreamIT_T0_ES6_(%"class.std::basic_ostream"* dereferenceable(272)) #1

declare dso_local dereferenceable(272) %"class.std::basic_ostream"* @_ZStlsISt11char_traitsIcEERSt13basic_ostreamIcT_ES5_PKc(%"class.std::basic_ostream"* dereferenceable(272), i8*) #1

; Function Attrs: noinline uwtable
define internal void @_GLOBAL__sub_I_658.cpp() #0 section ".text.startup" {
  call void @__cxx_global_var_init()
  ret void
}


!llvm.module.flags = !{!0}
!llvm.ident = !{!1}

!0 = !{i32 1, !"wchar_size", i32 4}
!1 = !{!"clang version 10.0.0-4ubuntu1 "}
